target datalayout = "e-m:e-p270:32:32-p271:32:32-p272:64:64-i64:64-i128:128-f80:128-n8:16:32:64-S128"
target triple = "x86_64-pc-linux-gnu"

%struct.VLC = type { i32, ptr, i32, i32 }
%struct.VLCElem = type { %union.anon.0 }
%union.anon.0 = type { %struct.anon }
%struct.anon = type { i16, i16 }
%struct.IVIHuffDesc = type { i32, [16 x i8] }

@ivi_blk_vlc_tabs = internal global [8 x %struct.VLC] zeroinitializer, align 16
@ivi_mb_vlc_tabs = internal global [8 x %struct.VLC] zeroinitializer, align 16
@ivi_init_static_vlc.table_data = internal global [131072 x %struct.VLCElem] zeroinitializer, align 16

; Function Attrs: cold nounwind optsize uwtable
define internal void @ivi_init_static_vlc() #0 {
  %1 = alloca i32, align 4
  call void @llvm.lifetime.start.p0(i64 4, ptr %1) #12
  store i32 0, ptr %1, align 4, !tbaa !4
  br label %2

2:                                                ; preds = %47, %0
  %3 = load i32, ptr %1, align 4, !tbaa !4
  %4 = icmp slt i32 %3, 8
  br i1 %4, label %5, label %50

5:                                                ; preds = %2
  %6 = load i32, ptr %1, align 4, !tbaa !4
  %7 = mul nsw i32 %6, 2
  %8 = mul nsw i32 %7, 8192
  %9 = sext i32 %8 to i64
  %10 = getelementptr inbounds %struct.VLCElem, ptr @ivi_init_static_vlc.table_data, i64 %9
  %11 = load i32, ptr %1, align 4, !tbaa !4
  %12 = sext i32 %11 to i64
  %13 = getelementptr inbounds [8 x %struct.VLC], ptr @ivi_mb_vlc_tabs, i64 0, i64 %12
  %14 = getelementptr inbounds nuw %struct.VLC, ptr %13, i32 0, i32 1
  store ptr %10, ptr %14, align 8, !tbaa !8
  %15 = load i32, ptr %1, align 4, !tbaa !4
  %16 = sext i32 %15 to i64
  %17 = getelementptr inbounds [8 x %struct.VLC], ptr @ivi_mb_vlc_tabs, i64 0, i64 %16
  %18 = getelementptr inbounds nuw %struct.VLC, ptr %17, i32 0, i32 3
  store i32 8192, ptr %18, align 4, !tbaa !12
  %19 = load i32, ptr %1, align 4, !tbaa !4
  %20 = sext i32 %19 to i64
  %21 = getelementptr inbounds [8 x %struct.IVIHuffDesc], ptr @ivi_mb_huff_desc, i64 0, i64 %20
  %22 = load i32, ptr %1, align 4, !tbaa !4
  %23 = sext i32 %22 to i64
  %24 = getelementptr inbounds [8 x %struct.VLC], ptr @ivi_mb_vlc_tabs, i64 0, i64 %23
  %25 = call i32 @ivi_create_huff_from_desc(ptr noundef %21, ptr noundef %24, i32 noundef 1)
  %26 = load i32, ptr %1, align 4, !tbaa !4
  %27 = mul nsw i32 %26, 2
  %28 = add nsw i32 %27, 1
  %29 = mul nsw i32 %28, 8192
  %30 = sext i32 %29 to i64
  %31 = getelementptr inbounds %struct.VLCElem, ptr @ivi_init_static_vlc.table_data, i64 %30
  %32 = load i32, ptr %1, align 4, !tbaa !4
  %33 = sext i32 %32 to i64
  %34 = getelementptr inbounds [8 x %struct.VLC], ptr @ivi_blk_vlc_tabs, i64 0, i64 %33
  %35 = getelementptr inbounds nuw %struct.VLC, ptr %34, i32 0, i32 1
  store ptr %31, ptr %35, align 8, !tbaa !8
  %36 = load i32, ptr %1, align 4, !tbaa !4
  %37 = sext i32 %36 to i64
  %38 = getelementptr inbounds [8 x %struct.VLC], ptr @ivi_blk_vlc_tabs, i64 0, i64 %37
  %39 = getelementptr inbounds nuw %struct.VLC, ptr %38, i32 0, i32 3
  store i32 8192, ptr %39, align 4, !tbaa !12
  %40 = load i32, ptr %1, align 4, !tbaa !4
  %41 = sext i32 %40 to i64
  %42 = getelementptr inbounds [8 x %struct.IVIHuffDesc], ptr @ivi_blk_huff_desc, i64 0, i64 %41
  %43 = load i32, ptr %1, align 4, !tbaa !4
  %44 = sext i32 %43 to i64
  %45 = getelementptr inbounds [8 x %struct.VLC], ptr @ivi_blk_vlc_tabs, i64 0, i64 %44
  %46 = call i32 @ivi_create_huff_from_desc(ptr noundef %42, ptr noundef %45, i32 noundef 1)
  br label %47

47:                                               ; preds = %5
  %48 = load i32, ptr %1, align 4, !tbaa !4
  %49 = add nsw i32 %48, 1
  store i32 %49, ptr %1, align 4, !tbaa !4
  br label %2, !llvm.loop !13

50:                                               ; preds = %2
  call void @llvm.lifetime.end.p0(i64 4, ptr %1) #12
  ret void
}