; Function Attrs: cold nounwind optsize uwtable
define internal void @ivi_init_static_vlc() #0 {
  br label %1

1:                                                ; preds = %0, %1
  %indvars.iv = phi i64 [ 0, %0 ], [ %indvars.iv.next, %1 ]
  %.idx = shl nuw nsw i64 %indvars.iv, 16
  %2 = getelementptr inbounds nuw i8, ptr @ivi_init_static_vlc.table_data, i64 %.idx
  %3 = getelementptr inbounds nuw [8 x %struct.VLC], ptr @ivi_mb_vlc_tabs, i64 0, i64 %indvars.iv
  %4 = getelementptr inbounds nuw i8, ptr %3, i64 8
  store ptr %2, ptr %4, align 8, !tbaa !4
  %5 = getelementptr inbounds nuw i8, ptr %3, i64 20
  store i32 8192, ptr %5, align 4, !tbaa !11
  %6 = getelementptr inbounds nuw [8 x %struct.IVIHuffDesc], ptr @ivi_mb_huff_desc, i64 0, i64 %indvars.iv
  %7 = tail call fastcc i32 @ivi_create_huff_from_desc(ptr noundef nonnull %6, ptr noundef nonnull %3, i32 noundef 1)
  %8 = getelementptr inbounds nuw i8, ptr %2, i64 32768
  %9 = getelementptr inbounds nuw [8 x %struct.VLC], ptr @ivi_blk_vlc_tabs, i64 0, i64 %indvars.iv
  %10 = getelementptr inbounds nuw i8, ptr %9, i64 8
  store ptr %8, ptr %10, align 8, !tbaa !4
  %11 = getelementptr inbounds nuw i8, ptr %9, i64 20
  store i32 8192, ptr %11, align 4, !tbaa !11
  %12 = getelementptr inbounds nuw [8 x %struct.IVIHuffDesc], ptr @ivi_blk_huff_desc, i64 0, i64 %indvars.iv
  %13 = tail call fastcc i32 @ivi_create_huff_from_desc(ptr noundef nonnull %12, ptr noundef nonnull %9, i32 noundef 1)
  %indvars.iv.next = add nuw nsw i64 %indvars.iv, 1
  %exitcond.not = icmp eq i64 %indvars.iv.next, 8
  br i1 %exitcond.not, label %14, label %1, !llvm.loop !12

14:                                               ; preds = %1
  ret void
}